; ModuleID = '47/3759.c'
source_filename = "47/3759.c"
target datalayout = "e-m:e-p270:32:32-p271:32:32-p272:64:64-i64:64-f80:128-n8:16:32:64-S128"
target triple = "x86_64-pc-linux-gnu"

@.str = private unnamed_addr constant [3 x i8] c"%d\00", align 1
@.str.1 = private unnamed_addr constant [4 x i8] c"%d \00", align 1
@.str.2 = private unnamed_addr constant [4 x i8] c"%d\0A\00", align 1

; Function Attrs: noinline nounwind uwtable
define dso_local i32 @main() #0 {
  %1 = alloca i32, align 4
  %2 = alloca i32, align 4
  %3 = alloca i32*, align 8
  %4 = alloca i32, align 4
  %5 = alloca i32, align 4
  store i32 0, i32* %1, align 4
  %6 = call i32 (i8*, ...) @__isoc99_scanf(i8* getelementptr inbounds ([3 x i8], [3 x i8]* @.str, i64 0, i64 0), i32* %2)
  %7 = load i32, i32* %2, align 4
  %8 = sext i32 %7 to i64
  %9 = call noalias i8* @malloc(i64 %8) #3
  %10 = bitcast i8* %9 to i32*
  store i32* %10, i32** %3, align 8
  store i32 1, i32* %4, align 4
  br label %11

11:                                               ; preds = %22, %0
  %12 = load i32, i32* %4, align 4
  %13 = load i32, i32* %2, align 4
  %14 = icmp sle i32 %12, %13
  br i1 %14, label %15, label %25

15:                                               ; preds = %11
  %16 = call i32 (i8*, ...) @__isoc99_scanf(i8* getelementptr inbounds ([3 x i8], [3 x i8]* @.str, i64 0, i64 0), i32* %5)
  %17 = load i32, i32* %5, align 4
  %18 = load i32*, i32** %3, align 8
  %19 = load i32, i32* %4, align 4
  %20 = sext i32 %19 to i64
  %21 = getelementptr inbounds i32, i32* %18, i64 %20
  store i32 %17, i32* %21, align 4
  br label %22

22:                                               ; preds = %15
  %23 = load i32, i32* %4, align 4
  %24 = add nsw i32 %23, 1
  store i32 %24, i32* %4, align 4
  br label %11

25:                                               ; preds = %11
  %26 = load i32, i32* %2, align 4
  store i32 %26, i32* %4, align 4
  br label %27

27:                                               ; preds = %37, %25
  %28 = load i32, i32* %4, align 4
  %29 = icmp sgt i32 %28, 1
  br i1 %29, label %30, label %40

30:                                               ; preds = %27
  %31 = load i32*, i32** %3, align 8
  %32 = load i32, i32* %4, align 4
  %33 = sext i32 %32 to i64
  %34 = getelementptr inbounds i32, i32* %31, i64 %33
  %35 = load i32, i32* %34, align 4
  %36 = call i32 (i8*, ...) @printf(i8* getelementptr inbounds ([4 x i8], [4 x i8]* @.str.1, i64 0, i64 0), i32 %35)
  br label %37

37:                                               ; preds = %30
  %38 = load i32, i32* %4, align 4
  %39 = add nsw i32 %38, -1
  store i32 %39, i32* %4, align 4
  br label %27

40:                                               ; preds = %27
  %41 = load i32*, i32** %3, align 8
  %42 = getelementptr inbounds i32, i32* %41, i64 1
  %43 = load i32, i32* %42, align 4
  %44 = call i32 (i8*, ...) @printf(i8* getelementptr inbounds ([4 x i8], [4 x i8]* @.str.2, i64 0, i64 0), i32 %43)
  ret i32 0
}

declare dso_local i32 @__isoc99_scanf(i8*, ...) #1

; Function Attrs: nounwind
declare dso_local noalias i8* @malloc(i64) #2

declare dso_local i32 @printf(i8*, ...) #1


!llvm.module.flags = !{!0}
!llvm.ident = !{!1}

!0 = !{i32 1, !"wchar_size", i32 4}
!1 = !{!"clang version 10.0.0-4ubuntu1 "}
